(dp0
S'Someone'
p1
S'000-000-0000'
p2
sS'Last'
p3
S'222-222-2222'
p4
sS'Jimbob'
p5
S'404-983-3392'
p6
sS'James'
p7
S'333-333-3333'
p8
sS'Something'
p9
S'111-111-1111'
p10
sS'Bob'
p11
S'322-223-2323'
p12
sS'Jack'
p13
S'530-292-4839'
p14
s.