(dp0
S'Someone'
p1
S'000-000-0000'
p2
sS'Jimbob'
p3
S'404-983-3392'
p4
sS'James'
p5
S'333-333-3333'
p6
sS'Jeb'
p7
S'34'
p8
sS'Joe'
p9
S'124-562-2362'
p10
sS'Jam'
p11
S'698'
p12
sS'Something'
p13
S'111-111-1111'
p14
sS'Bob'
p15
S'322-223-2323'
p16
sS'Jack'
p17
S'530-292-4839'
p18
s.